(lp0
(F40.4443533
F-79.960835
Fnan
I2015
tp1
a(F29.71306599999999
F-95.397055
F30.486500000000007
I2015
tp2
a(F48.99945
F12.0932
F3.317166666666667
I2015
tp3
a(F-27.4985329
F153.013617
Fnan
I2015
tp4
a(F40.735657
F-74.1723667
Fnan
I2013
tp5
a(F25.0430099
F121.613056
Fnan
I2015
tp6
a(F48.11363
F11.46503
Fnan
I2015
tp7
a(F35.030518
F135.7836835
F2.5955
I2015
tp8
a(F41.8885102
F-87.62855809999999
F2.5955
I2015
tp9
a(F33.793838
F-84.321827
F3.3024
I2015
tp10
a(F42.3664506
F-83.0737195
F6.06625
I2015
tp11
a(F38.031942
F-78.49858499999999
F3.585666666666667
I2015
tp12
a(F51.5177864
F-0.2350311
Fnan
I2015
tp13
a(F33.7925195
F-84.32399889999999
F8.519
I2015
tp14
a(F13.0812549
F80.2792722
F10.191
I2015
tp15
a(F41.3852105
F2.1940886
F8.519
I2015
tp16
a(F35.6814782
F139.7181345
Fnan
I2015
tp17
a(F55.8610414
F-4.242564199999999
Fnan
I2015
tp18
a(F53.3437935
F-6.254571599999999
F3.9202500000000002
I2015
tp19
a(F25.1230017
F121.5137024
F6.901166666666666
I2015
tp20
a(F-45.8646835
F170.5144227
Fnan
I2015
tp21
a(F34.1477849
F-118.1445155
Fnan
I2015
tp22
a(F47.6568696
F-117.3719973
F3.585666666666667
I2015
tp23
a(F37.7674283
F-122.3903494
F3.951
I2015
tp24
a(F37.4274745
F-122.169719
Fnan
I2015
tp25
a(F38.984652
F-77.0947092
Fnan
I2015
tp26
a(F42.360091
F-71.09416
F32.047
I2015
tp27
a(F39.7450558
F-104.8376538
F3.317166666666667
I2015
tp28
a(F48.5378502
F9.036120799999999
F3.702
I2015
tp29
a(F36.0899096
F-80.2695779
F4.1228
I2015
tp30
a(F40.8084075
F-77.8638835
F5.940666666666666
I2015
tp31
a(F39.3544761
F-76.6629303
F1.2298333333333333
I2015
tp32
a(F42.350887
F-71.10365139999999
Fnan
I2015
tp33
a(F42.701848
F-84.4821719
Fnan
I2015
tp34
a(F47.5675946
F7.603574500000001
F31.164666666666665
I2015
tp35
a(F32.8412178
F-96.78451749999999
Fnan
I2015
tp36
a(F37.4274745
F-122.169719
F3.951
I2015
tp37
a(F42.360091
F-71.09416
Fnan
I2015
tp38
a(F35.7157922
F139.7643271
F9.384333333333334
I2015
tp39
a(F37.4274745
F-122.169719
Fnan
I2015
tp40
a(F36.9913856
F-122.0608718
F5.02
I2015
tp41
a(F36.9913856
F-122.0608718
F5.02
I2015
tp42
a(F59.84113419999999
F17.6332005
F13.266000000000002
I2015
tp43
a(F50.7267715
F7.0865227
F14.743000000000002
I2015
tp44
a(F31.1408757
F121.4251069
F15.8696
I2015
tp45
a(F40.0103247
F-105.2889726
Fnan
I2015
tp46
a(F45.4601435
F9.194584299999999
F30.486500000000007
I2015
tp47
a(F34.49472
F-82.708885
Fnan
I2015
tp48
a(F32.7767783
F35.0231271
Fnan
I2015
tp49
a(F42.3629523
F-71.0686975
F3.3978
I2015
tp50
a(F34.066463
F-118.443069
F7.111833333333333
I2015
tp51
a(F40.72951339999999
F-73.9964609
F8.519
I2015
tp52
a(F42.3770029
F-71.11666009999999
F8.519
I2015
tp53
a(F40.72951339999999
F-73.9964609
F2.2542
I2015
tp54
a(F35.7120564
F139.7627745
F7.207
I2015
tp55
a(F38.6351676
F-90.26268170000002
F14.9362
I2015
tp56
a(F34.068921
F-118.4451811
F5.940666666666666
I2015
tp57
a(F48.8434912
F2.3518339
F6.901166666666666
I2015
tp58
a(F48.2204875
F16.3517225
F30.486500000000007
I2015
tp59
a(F29.5828572
F-98.62245929999999
F7.111833333333333
I2015
tp60
a(F37.5489872
F-77.4534286
F4.100750000000001
I2015
tp61
a(F40.7390264
F-74.1687396
F7.111833333333333
I2015
tp62
a(F40.9123761
F-73.1233889
F4.010800000000001
I2015
tp63
a(F34.6919598
F135.7005364
Fnan
I2014
tp64
a(F37.8738988
F-122.2657875
Fnan
I2015
tp65
a(F42.4074843
F-71.1190232
F2.563333333333333
I2015
tp66
a(F42.3654347
F-71.258595
Fnan
I2015
tp67
a(F52.2924365
F4.9552403
F7.291333333333334
I2015
tp68
a(F-36.8523378
F174.7691073
F3.3069999999999995
I2015
tp69
a(F38.9368448
F-77.0908767
Fnan
I2015
tp70
a(F33.7534444
F-84.38803460000001
Fnan
I2015
tp71
a(F37.549825
F126.9404156
Fnan
I2015
tp72
a(F50.93378920000001
F-1.3959663
F5.02
I2015
tp73
a(F41.5043413
F-81.6083838
F4.380833333333333
I2015
tp74
a(F37.4274745
F-122.169719
F14.9362
I2015
tp75
a(F37.4274745
F-122.169719
F14.9362
I2015
tp76
a(F42.2780436
F-83.7382241
F14.9362
I2015
tp77
a(F42.360091
F-71.09416
F3.317166666666667
I2015
tp78
a(F48.84662350000001
F2.3589753
Fnan
I2015
tp79
a(F45.5016889
F-73.567256
Fnan
I2015
tp80
a(F39.7450558
F-104.8376538
F7.111833333333333
I2015
tp81
a(F51.5114864
F-0.115997
F7.111833333333333
I2015
tp82
a(F55.755826
F37.6173
F4.0969999999999995
I2015
tp83
a(F35.7157922
F139.7643271
F37.12075
I2015
tp84
a(F55.755826
F37.6173
F12.082333333333333
I2015
tp85
a(F52.2924365
F4.9552403
F10.141833333333333
I2015
tp86
a(F40.74727
F-73.9800645
F7.111833333333333
I2015
tp87
a(F37.476364
F126.616936
Fnan
I2015
tp88
a(F35.7126775
F139.761989
Fnan
I2015
tp89
a(F38.031942
F-78.49858499999999
Fnan
I2015
tp90
a(F39.2986897
F-76.5912195
F14.9362
I2015
tp91
a(F34.2918804
F109.0033174
F2.061
I2015
tp92
a(F35.8021895
F139.4665673
F4.4584
I2015
tp93
a(F40.9147015
F-73.1203653
F5.934200000000001
I2015
tp94
a(F37.7138335
F-89.2116506
F2.467833333333333
I2015
tp95
a(F48.0098937
F7.8574669
F3.951
I2015
tp96
a(F42.3504997
F-71.1053991
F5.02
I2015
tp97
a(F46.8600672
F-113.9852081
Fnan
I2015
tp98
a(F32.060255
F118.796877
F2.669166666666667
I2015
tp99
a(F35.9504006
F-78.96702250000001
F3.7735000000000003
I2015
tp100
a(F45.4990977
F-122.6854607
F7.111833333333333
I2015
tp101
a(F30.2849185
F-97.7340567
F7.111833333333333
I2015
tp102
a(F45.188529
F5.724524
F37.12075
I2015
tp103
a(F42.360091
F-71.09416
Fnan
I2015
tp104
a(F29.7173941
F-95.40183119999999
Fnan
I2015
tp105
a(F36.0033173
F-78.90575079999999
Fnan
I2015
tp106
a(F41.7886079
F-87.5987133
F14.9362
I2015
tp107
a(F51.07644
F-114.128284
F2.4941666666666666
I2015
tp108
a(F37.4317961
F-122.1758412
Fnan
I2015
tp109
a(F43.7101728
F7.261953200000001
F7.3146
I2015
tp110
a(F39.0437567
F-77.4874416
F7.111833333333333
I2015
tp111
a(F51.9606649
F7.6261347
F3.6867999999999994
I2015
tp112
a(F52.205337
F0.121817
F8.519
I2015
tp113
a(F51.52455920000001
F-0.1340401
F2.6458000000000004
I2015
tp114
a(F39.9996674
F116.3264439
F3.2718333333333334
I2015
tp115
a(F40.7649828
F-73.9547848
Fnan
I2015
tp116
a(F1.2800945
F103.8509491
Fnan
I2015
tp117
a(F32.8328112
F-117.2712717
F14.743000000000002
I2015
tp118
a(F47.6492925
F-122.3517502
F14.9362
I2015
tp119
a(F37.4274745
F-122.169719
F14.9362
I2015
tp120
a(F1.281185
F103.834145
F7.111833333333333
I2015
tp121
a(F48.701844
F2.134078
F7.111833333333333
I2015
tp122
a(F55.712584
F13.2078158
F10.141833333333333
I2015
tp123
a(F42.0632339
F-71.0541318
Fnan
I2015
tp124
a(F33.6404952
F-117.8442962
Fnan
I2015
tp125
a(F18.398373
F-66.07286069999999
F7.111833333333333
I2015
tp126
a(F32.7766642
F-96.79698789999999
F7.111833333333333
I2015
tp127
a(F29.7050857
F-95.40180869999999
F7.111833333333333
I2015
tp128
a(F36.0033173
F-78.90575079999999
Fnan
I2015
tp129
a(F39.9522188
F-75.1932137
F5.696000000000001
I2015
tp130
a(F33.6746421
F-117.8001331
F14.743000000000002
I2015
tp131
a(F40.8540417
F-73.8459726
F29.694166666666664
I2015
tp132
a(F47.497912
F19.040235
F14.743000000000002
I2015
tp133
a(F39.9583587
F-75.1953934
F3.7735000000000003
I2015
tp134
a(F48.0098937
F7.8574669
F3.6141999999999994
I2015
tp135
a(F37.42410599999999
F-122.1660756
F2.481333333333333
I2015
tp136
a(F40.00069
F116.3288579
F7.111833333333333
I2015
tp137
a(F37.300344
F126.97086
Fnan
I2015
tp138
a(F40.7703804
F-111.8357481
Fnan
I2014
tp139
a(F39.2903848
F-76.6121893
F14.743000000000002
I2015
tp140
a(F35.9940329
F-78.898619
F14.5286
I2015
tp141
a(F44.0234805
F-92.4659363
F5.4012
I2014
tp142
a(F43.076592
F-89.4124875
F27.7166
I2015
tp143
a(F46.1983922
F6.142296099999999
F30.486500000000007
I2015
tp144
a(F52.1601144
F4.4970097
F4.812
I2015
tp145
a(F38.0335529
F-78.5079772
F7.3146
I2015
tp146
a(F39.2887707
F-76.62606319999999
F4.758
I2015
tp147
a(F37.8715926
F-122.272747
Fnan
I2015
tp148
a(F34.068921
F-118.4451811
F14.743000000000002
I2015
tp149
a(F42.35925390000001
F-71.09313420000001
F14.9362
I2014
tp150
a(F42.360091
F-71.09416
Fnan
I2015
tp151
a(F50.8106859
F8.7741641
Fnan
I2015
tp152
a(F32.787049
F-79.950825
Fnan
I2014
tp153
a(F46.18296110000001
F-123.824103
F7.111833333333333
I2015
tp154
a(F43.6628917
F-79.39565640000001
F3.317166666666667
I2015
tp155
a(F50.73743
F7.0982068
F8.519
I2014
tp156
a(F18.398373
F-66.07286069999999
F37.12075
I2014
tp157
a(F33.6404952
F-117.8442962
Fnan
I2015
tp158
a(F38.031942
F-78.49858499999999
F7.111833333333333
I2015
tp159
a(F40.789057
F-73.9530983
F3.7735000000000003
I2015
tp160
a(F50.701054
F7.1002421
F5.934200000000001
I2014
tp161
a(F40.7127837
F-74.0059413
F27.7166
I2014
tp162
a(F41.89483269999999
F-87.6198915
F14.9362
I2014
tp163
a(F37.8718992
F-122.2585399
F3.3024
I2014
tp164
a(F41.8077414
F-72.2539805
F3.7735000000000003
I2015
tp165
a(F39.2713976
F-76.5603828
F3.585666666666667
I2014
tp166
a(F40.8714873
F-73.456788
Fnan
I2014
tp167
a(F52.0901527
F5.1226018
F37.12075
I2014
tp168
a(F40.1734502
F-80.24350129999999
F9.384333333333334
I2014
tp169
a(F41.89483269999999
F-87.6198915
Fnan
I2015
tp170
a(F41.8297329
F-71.39796489999999
F3.317166666666667
I2014
tp171
a(F42.3770029
F-71.11666009999999
Fnan
I2015
tp172
a(F42.360091
F-71.09416
Fnan
I2014
tp173
a(F45.50478469999999
F-73.5771511
F10.456
I2014
tp174
a(F48.856614
F2.3522219
F5.2755
I2014
tp175
a(F46.5190557
F6.5667576
F14.9362
I2014
tp176
a(F35.9049122
F-79.0469134
Fnan
I2014
tp177
a(F52.3702157
F4.895167900000001
Fnan
I2014
tp178
a(F51.4818445
F7.216236299999999
Fnan
I2014
tp179
a(F46.1938318
F6.1516853
Fnan
I2014
tp180
a(F46.5210895
F6.5801606
F37.12075
I2014
tp181
a(F51.52455920000001
F-0.1340401
F20.005999999999997
I2014
tp182
a(F37.4274745
F-122.169719
F8.08125
I2014
tp183
a(F45.764043
F4.835659
F3.153
I2014
tp184
a(F32.7554883
F-97.3307658
Fnan
I2014
tp185
a(F41.3029812
F-72.9315172
Fnan
I2014
tp186
a(F34.9289752
F134.4457851
F10.141833333333333
I2014
tp187
a(F34.8220139
F135.5244676
Fnan
I2014
tp188
a(F42.2780436
F-83.7382241
F7.111833333333333
I2014
tp189
a(F44.4056499
F8.946256
F3.317166666666667
I2014
tp190
a(F44.4746531
F8.9067366
Fnan
I2014
tp191
a(F49.7830083
F9.9708462
F21.7974
I2014
tp192
a(F52.4525264
F13.2896787
F3.1722
I2014
tp193
a(F-45.8686144
F170.508132
Fnan
I2014
tp194
a(F33.4918203
F-80.8556476
Fnan
I2014
tp195
a(F48.30986559999999
F16.323772
F3.313333333333334
I2014
tp196
a(F48.5216364
F9.0576448
F14.743000000000002
I2014
tp197
a(F42.3354612
F-71.1034568
F14.743000000000002
I2014
tp198
a(F35.7020603
F139.7611417
F2.061
I2014
tp199
a(F42.3627882
F-71.0703034
F2.669166666666667
I2014
tp200
a(F46.5189865
F6.5676007
F3.585666666666667
I2014
tp201
a(F49.26019549999999
F-123.2426367
F7.111833333333333
I2014
tp202
a(F41.8077414
F-72.2539805
F8.08125
I2014
tp203
a(F37.4274745
F-122.169719
F5.940666666666666
I2014
tp204
a(F39.3304957
F-76.6200464
Fnan
I2014
tp205
a(F29.7104988
F-95.3961809
F2.6150000000000007
I2014
tp206
a(F50.1748224
F8.6322786
F3.981666666666667
I2014
tp207
a(F45.4601435
F9.194584299999999
F9.461200000000002
I2014
tp208
a(F34.8220139
F135.5244676
Fnan
I2014
tp209
a(F48.8556834
F2.3315132
F14.9362
I2014
tp210
a(F38.6351676
F-90.26268170000002
F5.9408
I2014
tp211
a(F39.7451972
F-104.8377105
F7.111833333333333
I2014
tp212
a(F42.3363492
F-71.0723477
F7.111833333333333
I2014
tp213
a(F40.72951339999999
F-73.9964609
F7.111833333333333
I2014
tp214
a(F51.5035304
F-0.0866729
F30.486500000000007
I2014
tp215
a(F40.789057
F-73.9530983
F7.111833333333333
I2014
tp216
a(F43.076592
F-89.4124875
F3.317166666666667
I2014
tp217
a(F29.7070972
F-95.3971021
F3.811833333333334
I2014
tp218
a(F33.7489954
F-84.3879824
Fnan
I2014
tp219
a(F50.8053487
F8.8072842
F3.3224000000000005
I2014
tp220
a(F46.1983922
F6.142296099999999
F14.743000000000002
I2014
tp221
a(F40.3439888
F-74.6514481
F14.743000000000002
I2014
tp222
a(F40.8508265
F-73.8456233
F14.743000000000002
I2014
tp223
a(F40.91830059999999
F-73.1175003
F7.111833333333333
I2014
tp224
a(F44.045952
F-123.0719833
F7.111833333333333
I2014
tp225
a(F51.75824960000001
F-1.2513866
F7.111833333333333
I2014
tp226
a(F41.7324663
F-72.8072342
Fnan
I2014
tp227
a(F34.070264
F-118.4440562
Fnan
I2014
tp228
a(F43.078263
F-87.8819686
Fnan
I2014
tp229
a(F40.9123761
F-73.1233889
Fnan
I2014
tp230
a(F38.9994906
F-77.1065988
Fnan
I2014
tp231
a(F49.26019549999999
F-123.2426367
F7.111833333333333
I2014
tp232
a(F42.4074843
F-71.1190232
Fnan
I2014
tp233
a(F29.7604267
F-95.3698028
Fnan
I2014
tp234
a(F33.4964621
F-86.8095148
Fnan
I2014
tp235
a(F46.8062596
F7.1518254
F4.206666666666666
I2014
tp236
a(F37.590401
F127.035859
F4.758
I2014
tp237
a(F43.085068
F141.3345872
F3.75875
I2014
tp238
a(F51.5408116
F9.9374004
Fnan
I2014
tp239
a(F39.7450558
F-104.8376538
F3.951
I2014
tp240
a(F48.0098937
F7.8574669
F3.951
I2014
tp241
a(F37.7749295
F-122.4194155
Fnan
I2014
tp242
a(F36.2258333
F140.105
F4.100750000000001
I2014
tp243
a(F38.0335529
F-78.5079772
Fnan
I2014
tp244
a(F37.4274745
F-122.169719
F5.0952
I2014
tp245
a(F34.0223519
F-118.285117
Fnan
I2014
tp246
a(F51.49879970000001
F-0.1748772
Fnan
I2014
tp247
a(F40.7392263
F-73.9755502
Fnan
I2014
tp248
a(F51.5222509
F-0.1222845
F4.032333333333333
I2014
tp249
a(F42.3727577
F-71.11891039999999
F4.010800000000001
I2014
tp250
a(F29.9262443
F-95.59698739999999
F4.010800000000001
I2014
tp251
a(F41.8700726
F-87.6716747
Fnan
I2014
tp252
a(F-33.8674869
F151.2069902
Fnan
I2014
tp253
a(F36.0899096
F-80.2695779
F5.6688333333333345
I2014
tp254
a(F51.52455920000001
F-0.1340401
F20.005999999999997
I2014
tp255
a(F40.8476284
F-73.8360251
F5.452
I2014
tp256
a(F37.4317961
F-122.1758412
F3.7735000000000003
I2014
tp257
a(F33.7700012
F-84.3811458
F6.06625
I2014
tp258
a(F41.8964357
F-87.61969030000002
F7.111833333333333
I2014
tp259
a(F29.7184003
F-95.39811089999999
F3.951
I2014
tp260
a(F39.2887707
F-76.62606319999999
Fnan
I2014
tp261
a(F35.7993259
F139.725607
F6.663499999999999
I2014
tp262
a(F43.7067974
F10.4312272
F3.6571666666666665
I2014
tp263
a(F51.7638706
F-1.2198063
F10.141833333333333
I2014
tp264
a(F51.7597085
F-1.2548072
Fnan
I2014
tp265
a(F40.742161
F-73.9741963
F4.286
I2014
tp266
a(F38.0335529
F-78.5079772
F2.1071999999999997
I2014
tp267
a(F52.1424096
F11.6372627
F5.940666666666666
I2014
tp268
a(F42.360091
F-71.09416
F14.9362
I2014
tp269
a(F31.0772086
F-97.3685378
Fnan
I2014
tp270
a(F44.0350489
F-123.0473566
Fnan
I2014
tp271
a(F47.9935441
F7.845949599999999
F3.577
I2014
tp272
a(F35.9049122
F-79.0469134
F12.08225
I2014
tp273
a(F37.4313529
F-122.1776287
F7.291333333333334
I2014
tp274
a(F40.789057
F-73.9530983
Fnan
I2014
tp275
a(F46.5210895
F6.5801606
F4.302666666666667
I2014
tp276
a(F40.4443533
F-79.960835
F14.9362
I2014
tp277
a(F40.7390264
F-74.1687396
Fnan
I2014
tp278
a(F48.2177118
F16.3585341
F7.111833333333333
I2014
tp279
a(F55.7046601
F13.1910073
F7.662333333333333
I2014
tp280
a(F39.7450558
F-104.8376538
Fnan
I2014
tp281
a(F45.50478469999999
F-73.5771511
F14.743000000000002
I2014
tp282
a(F39.2887707
F-76.62606319999999
Fnan
I2014
tp283
a(F30.593099
F114.305393
F2.4202
I2014
tp284
a(F37.7716141
F-122.4258437
F7.111833333333333
I2014
tp285
a(F42.361507
F-71.09798099999999
F37.12075
I2014
tp286
a(F36.0034778
F-78.9358103
F37.12075
I2014
tp287
a(F34.1376576
F-118.125269
Fnan
I2014
tp288
a(F35.9087754
F-79.0297294
Fnan
I2014
tp289
a(F26.4619851
F127.831046
F10.141833333333333
I2014
tp290
a(F41.8267718
F-71.4025482
F14.743000000000002
I2014
tp291
a(F35.9087754
F-79.0297294
F14.9362
I2014
tp292
a(F51.44566589999999
F7.261609300000001
F4.0969999999999995
I2014
tp293
a(F47.6498791
F-122.3105249
F7.111833333333333
I2014
tp294
a(F37.4317961
F-122.1758412
Fnan
I2014
tp295
a(F39.2992708
F-76.5933967
Fnan
I2014
tp296
a(F35.912234
F-79.053484
F4.67225
I2014
tp297
a(F40.91830059999999
F-73.1175003
F2.8958
I2014
tp298
a(F37.4317961
F-122.1758412
F2.8945
I2014
tp299
a(F51.5174675
F-0.1731153
Fnan
I2014
tp300
a(F51.4575767
F-2.5999862
F4.083
I2014
tp301
a(F40.72951339999999
F-73.9964609
F14.743000000000002
I2014
tp302
a(F41.5043413
F-81.6083838
F4.67225
I2014
tp303
a(F48.8378723
F2.3608047
F4.974333333333333
I2014
tp304
a(F54.9791871
F-1.6146608
Fnan
I2014
tp305
a(F45.5091235
F-73.58138269999999
Fnan
I2014
tp306
a(F39.9578266
F-75.19909539999999
F8.801499999999999
I2014
tp307
a(F40.7703804
F-111.8357481
F3.7735000000000003
I2014
tp308
a(F45.4977501
F-122.6859596
F14.743000000000002
I2014
tp309
a(F41.3130972
F-105.5796706
Fnan
I2014
tp310
a(F52.1677096
F4.4774736
F5.934200000000001
I2014
tp311
a(F48.3116073
F16.2579739
F30.486500000000007
I2014
tp312
a(F51.5222509
F-0.1222845
F2.59
I2014
tp313
a(F42.3623656
F-71.09160849999999
F4.758
I2014
tp314
a(F42.3622624
F-71.0974908
F8.519
I2014
tp315
a(F30.4137222
F-91.1932405
Fnan
I2014
tp316
a(F40.7649368
F-111.8421021
Fnan
I2014
tp317
a(F42.3623656
F-71.09160849999999
Fnan
I2014
tp318
a(F40.91830059999999
F-73.1175003
Fnan
I2014
tp319
a(F35.9052764
F-79.05091159999999
F14.743000000000002
I2014
tp320
a(F59.9342802
F30.3350986
Fnan
I2014
tp321
a(F34.1376576
F-118.125269
F14.743000000000002
I2014
tp322
a(F48.856614
F2.3522219
F14.743000000000002
I2014
tp323
a(F42.3365946
F-71.1028836
F7.291333333333334
I2014
tp324
a(F34.0470836
F-81.0344657
Fnan
I2014
tp325
a(F52.5304776
F13.3779359
Fnan
I2014
tp326
a(F51.0504088
F13.7372621
F20.005999999999997
I2014
tp327
a(F39.2887707
F-76.62606319999999
F14.743000000000002
I2014
tp328
a(F40.9123761
F-73.1233889
Fnan
I2014
tp329
a(F42.3360091
F-71.1070623
F2.9843333333333337
I2014
tp330
a(F39.0437567
F-77.4874416
F7.111833333333333
I2014
tp331
a(F42.360091
F-71.09416
F37.12075
I2014
tp332
a(F37.7674283
F-122.3903494
Fnan
I2014
tp333
a(F47.6600087
F-122.3425575
Fnan
I2014
tp334
a(F31.773064
F35.196799
F13.266000000000002
I2014
tp335
a(F47.6161179
F-122.3349506
F3.3024
I2014
tp336
a(F42.4467049
F-76.48305789999999
F11.296
I2014
tp337
a(F33.6471239
F-117.8421325
F1.4323333333333335
I2014
tp338
a(F52.4478576
F13.2773168
F1.4323333333333335
I2014
tp339
a(F48.8434912
F2.3518339
F7.111833333333333
I2014
tp340
a(F36.1426398
F-86.8001068
F7.111833333333333
I2014
tp341
a(F51.488117
F-3.180317
Fnan
I2014
tp342
a(F43.64682860000001
F-79.3843749
Fnan
I2014
tp343
a(F52.281622
F10.5459607
Fnan
I2014
tp344
a(F42.360091
F-71.09416
F14.743000000000002
I2014
tp345
a(F49.3987524
F8.6724335
F14.743000000000002
I2014
tp346
a(F43.078263
F-87.8819686
F2.8958
I2014
tp347
a(F48.30986559999999
F16.323772
F9.531166666666667
I2014
tp348
a(F44.0448302
F-123.0726055
F10.141833333333333
I2014
tp349
a(F34.1378866
F-118.1247032
F3.981666666666667
I2014
tp350
a(F40.4425829
F-79.9616851
F7.111833333333333
I2014
tp351
a(F45.5031719
F-73.6248617
F4.032333333333333
I2014
tp352
a(F48.856614
F2.3522219
F14.5286
I2014
tp353
a(F29.7173941
F-95.40183119999999
F14.5286
I2014
tp354
a(F39.9522188
F-75.1932137
F3.951
I2014
tp355
a(F48.11363
F11.46503
F3.951
I2014
tp356
a(F40.789057
F-73.9530983
F3.3024
I2014
tp357
a(F52.532614
F13.3777035
F3.951
I2014
tp358
a(F41.31375999999999
F-105.5843787
F3.951
I2014
tp359
a(F38.6376876
F-90.2649045
F5.248666666666667
I2014
tp360
a(F41.7911243
F-87.60249739999999
Fnan
I2014
tp361
a(F35.912234
F-79.053484
F3.951
I2014
tp362
a(F39.2887707
F-76.62606319999999
F4.758
I2014
tp363
a(F48.701844
F2.134078
Fnan
I2014
tp364
a(F32.77288
F-117.072466
F37.12075
I2014
tp365
a(F40.3515155
F18.1750161
F14.9362
I2014
tp366
a(F36.0034778
F-78.9358103
F14.743000000000002
I2014
tp367
a(F50.1784926
F8.633809
Fnan
I2014
tp368
a(F42.9749564
F-78.73025609999999
F2.8945
I2014
tp369
a(F42.2780436
F-83.7382241
F2.9787999999999997
I2014
tp370
a(F32.1133141
F34.8043877
Fnan
I2014
tp371
a(F42.3354612
F-71.1034568
F7.111833333333333
I2014
tp372
a(F37.5858384
F127.0213534
F3.317166666666667
I2014
tp373
a(F51.5224206
F-0.1230544
F9.384333333333334
I2014
tp374
a(F43.296482
F5.36978
Fnan
I2014
tp375
a(F48.2081743
F16.3738189
F20.005999999999997
I2014
tp376
a(F52.4525264
F13.2896787
F3.4778333333333333
I2014
tp377
a(F35.0197745
F135.7776757
F3.0471999999999997
I2014
tp378
a(F38.039656
F-78.504049
F3.7735000000000003
I2014
tp379
a(F39.0437567
F-77.4874416
F8.519
I2014
tp380
a(F34.2682843
F134.1342933
F4.0969999999999995
I2014
tp381
a(F46.2000323
F6.1638785
F37.12075
I2014
tp382
a(F40.7127837
F-74.0059413
Fnan
I2014
tp383
a(F41.3790498
F2.1795632
Fnan
I2014
tp384
a(F38.984652
F-77.0947092
Fnan
I2014
tp385
a(F43.0789488
F141.3476887
Fnan
I2014
tp386
a(F35.9049122
F-79.0469134
F4.758
I2014
tp387
a(F35.15461070000001
F136.9624604
F7.111833333333333
I2014
tp388
a(F40.8424322
F-73.9435828
F7.111833333333333
I2014
tp389
a(F42.3770029
F-71.11666009999999
F37.12075
I2014
tp390
a(F37.7630127
F-122.4588329
F7.449666666666666
I2014
tp391
a(F59.84180869999999
F17.6325832
Fnan
I2014
tp392
a(F40.4443533
F-79.960835
F5.533166666666666
I2014
tp393
a(F37.8751926
F-122.2493051
F5.533166666666666
I2014
tp394
a(F47.4835912
F19.0795832
F3.585666666666667
I2014
tp395
a(F38.984652
F-77.0947092
F13.266000000000002
I2014
tp396
a(F41.3818686
F2.1169428
F3.742333333333334
I2014
tp397
a(F46.1937162
F6.1514994
F9.384333333333334
I2014
tp398
a(F36.3504119
F127.3845475
F20.005999999999997
I2014
tp399
a(F38.90018999999999
F-77.0528558
F7.111833333333333
I2014
tp400
a(F42.360091
F-71.09416
F4.758
I2014
tp401
a(F37.4274745
F-122.169719
F30.486500000000007
I2014
tp402
a(F42.3365946
F-71.1028836
F7.111833333333333
I2014
tp403
a(F40.9147015
F-73.1203653
F5.934200000000001
I2014
tp404
a(F29.5428749
F106.4471099
Fnan
I2014
tp405
a(F48.159395
F11.5923438
Fnan
I2014
tp406
a(F38.9071923
F-77.0368707
F5.12
I2014
tp407
a(F41.3029812
F-72.9315172
F4.758
I2014
tp408
a(F40.789057
F-73.9530983
F30.486500000000007
I2014
tp409
a(F35.11840249999999
F138.9185126
F4.0969999999999995
I2014
tp410
a(F34.1403259
F-118.1268061
F37.12075
I2014
tp411
a(F34.8137193
F135.5098745
Fnan
I2014
tp412
a(F37.4317961
F-122.1758412
Fnan
I2014
tp413
a(F51.445809
F7.262563000000001
Fnan
I2014
tp414
a(F43.12247660000001
F-77.62425739999999
Fnan
I2014
tp415
a(F50.26489189999999
F19.0237815
F1.0446666666666669
I2014
tp416
a(F45.500169
F-73.565767
F4.0969999999999995
I2014
tp417
a(F42.3354612
F-71.1034568
F27.7166
I2014
tp418
a(F41.3163244
F-72.92234309999999
F5.02
I2014
tp419
a(F48.7006263
F2.3033411
Fnan
I2014
tp420
a(F40.789057
F-73.9530983
F4.758
I2014
tp421
a(F1.3031951
F103.7931003
Fnan
I2014
tp422
a(F45.188529
F5.724524
Fnan
I2014
tp423
a(F49.9899356
F8.237611099999999
Fnan
I2014
tp424
a(F37.87015100000001
F-122.2594606
Fnan
I2014
tp425
a(F40.8424322
F-73.9435828
F37.12075
I2014
tp426
a(F40.3439888
F-74.6514481
Fnan
I2014
tp427
a(F41.8964357
F-87.61969030000002
Fnan
I2014
tp428
a(F49.3987524
F8.6724335
F14.743000000000002
I2014
tp429
a(F40.7649828
F-73.9547848
F2.9787999999999997
I2014
tp430
a(F51.5073509
F-0.1277583
F30.486500000000007
I2014
tp431
a(F37.4274745
F-122.169719
F30.486500000000007
I2014
tp432
a(F36.0044545
F-78.9418919
F7.111833333333333
I2014
tp433
a(F38.268215
F140.8693558
F4.0969999999999995
I2014
tp434
a(F48.8430845
F2.3466789
Fnan
I2014
tp435
a(F42.730172
F-73.6788026
Fnan
I2014
tp436
a(F39.3299013
F-76.6205177
F30.486500000000007
I2014
tp437
a(F52.532614
F13.3777035
F30.486500000000007
I2014
tp438
a(F39.2963369
F-76.62105389999999
F7.111833333333333
I2014
tp439
a(F37.4274745
F-122.169719
F7.111833333333333
I2014
tp440
a(F48.5216364
F9.0576448
Fnan
I2014
tp441
a(F48.8434912
F2.3518339
F7.111833333333333
I2014
tp442
a(F26.4619851
F127.831046
Fnan
I2014
tp443
a(F48.5216364
F9.0576448
F4.758
I2014
tp444
a(F44.8247667
F-0.6085863
Fnan
I2014
tp445
a(F-32.8927718
F151.7041775
Fnan
I2014
tp446
a(F38.984652
F-77.0947092
F4.758
I2014
tp447
a(F38.7222524
F-9.1393366
Fnan
I2014
tp448
a(F32.8873915
F-117.2453427
Fnan
I2014
tp449
a(F36.0899096
F-80.2695779
Fnan
I2014
tp450
a(F37.7748363
F-122.3872576
F14.9362
I2014
tp451
a(F39.9333635
F32.8597419
Fnan
I2014
tp452
a(F45.5510673
F9.174920199999999
F1.1361666666666668
I2014
tp453
a(F35.7126775
F139.761989
F3.317166666666667
I2014
tp454
a(F39.9525839
F-75.1652215
F4.758
I2014
tp455
a(F35.1548774
F136.9669295
F3.742333333333334
I2014
tp456
a(F40.4425829
F-79.9616851
F4.758
I2014
tp457
a(F51.5222509
F-0.1222845
F3.3640000000000003
I2014
tp458
a(F22.9975762
F120.2190858
F4.0969999999999995
I2014
tp459
a(F50.70274209999999
F7.100340099999999
F5.934200000000001
I2014
tp460
a(F32.8328112
F-117.2712717
Fnan
I2014
tp461
a(F33.7925195
F-84.32399889999999
F4.100750000000001
I2014
tp462
a(F55.7046601
F13.1910073
F7.111833333333333
I2014
tp463
a(F32.8328112
F-117.2712717
F3.317166666666667
I2014
tp464
a(F36.1447034
F-86.8026551
F4.100750000000001
I2014
tp465
a(F40.7629123
F-73.9558291
Fnan
I2013
tp466
a(F43.16103
F-77.6109219
Fnan
I2014
tp467
a(F31.2091335
F121.4557865
F7.111833333333333
I2014
tp468
a(F37.4274745
F-122.169719
F27.7166
I2014
tp469
a(F35.6807271
F139.7737554
Fnan
I2014
tp470
a(F32.7767783
F35.0231271
F5.934200000000001
I2014
tp471
a(F31.2006018
F121.4525143
Fnan
I2014
tp472
a(F35.1565645
F136.9247428
F9.8276
I2014
tp473
a(F52.3329403
F4.867082799999999
F2.665
I2014
tp474
a(F42.360091
F-71.09416
F20.005999999999997
I2014
tp475
a(F42.3770029
F-71.11666009999999
F4.010800000000001
I2013
tp476
a(F29.9262443
F-95.59698739999999
F4.010800000000001
I2013
tp477
a(F1.303087
F103.792926
F7.111833333333333
I2014
tp478
a(F48.1089197
F11.451958
F7.111833333333333
I2014
tp479
a(F55.7046601
F13.1910073
F5.12
I2014
tp480
a(F40.8424322
F-73.9435828
F37.12075
I2014
tp481
a(F34.1403259
F-118.1268061
F32.047
I2013
tp482
a(F42.360091
F-71.09416
Fnan
I2014
tp483
a(F46.199444
F6.1451157
F4.758
I2014
tp484
a(F42.360091
F-71.09416
F4.758
I2013
tp485
a(F48.1351253
F11.5819806
F4.100750000000001
I2014
tp486
a(F40.7620925
F-73.9561878
F7.111833333333333
I2014
tp487
a(F40.3439888
F-74.6514481
Fnan
I2014
tp488
a(F29.7104988
F-95.3961809
F8.519
I2014
tp489
a(F37.566535
F126.9779692
F2.9843333333333337
I2014
tp490
a(F42.4534492
F-76.4735027
Fnan
I2014
tp491
a(F47.5675946
F7.603574500000001
F14.9362
I2013
tp492
a(F34.94418510000001
F137.1743296
F14.9362
I2013
tp493
a(F37.431113
F-122.178451
F14.9362
I2014
tp494
a(F31.1979597
F121.4627472
Fnan
I2014
tp495
a(F49.26019549999999
F-123.2426367
F7.111833333333333
I2014
tp496
a(F43.076592
F-89.4124875
F3.2729999999999997
I2014
tp497
a(F39.2986593
F-76.5940537
F2.627
I2013
tp498
a(F41.3029812
F-72.9315172
F14.743000000000002
I2013
tp499
a(F37.867494
F-122.300785
F14.743000000000002
I2013
tp500
a(F40.742161
F-73.9741963
F7.291333333333334
I2013
tp501
a(F35.659052
F139.683983
F5.533166666666666
I2014
tp502
a(F49.9926403
F8.241555199999999
F4.758
I2013
tp503
a(F40.77126760000001
F-73.94778
F14.5286
I2013
tp504
a(F34.1376054
F-117.2150645
Fnan
I2013
tp505
a(F42.3623656
F-71.09160849999999
F7.111833333333333
I2014
tp506
a(F32.787049
F-79.950825
F4.758
I2013
tp507
a(F48.1128436
F11.4672178
F8.519
I2014
tp508
a(F38.908229
F-77.03053899999999
F7.161333333333332
I2014
tp509
a(F51.524038
F-0.12903
F2.6150000000000007
I2013
tp510
a(F37.4317961
F-122.1758412
F7.207
I2013
tp511
a(F38.8964053
F-77.0246665
F3.585666666666667
I2014
tp512
a(F31.7730893
F-106.5057332
Fnan
I2013
tp513
a(F59.34814839999999
F18.0236578
F7.111833333333333
I2014
tp514
a(F40.7620925
F-73.9561878
F8.519
I2014
tp515
a(F43.2448312
F5.4117403
Fnan
I2013
tp516
a(F34.8220139
F135.5244676
F4.0969999999999995
I2013
tp517
a(F32.787049
F-79.950825
F4.100750000000001
I2013
tp518
a(F39.3249281
F-76.62335379999999
Fnan
I2013
tp519
a(F35.6189494
F139.7121734
F4.2735
I2013
tp520
a(F35.6562247
F139.6881411
F4.0969999999999995
I2013
tp521
a(F33.7756178
F-84.39628499999999
Fnan
I2013
tp522
a(F42.3354612
F-71.1034568
Fnan
I2013
tp523
a(F63.4171494
F10.40447
Fnan
I2013
tp524
a(F34.1376576
F-118.125269
F20.005999999999997
I2013
tp525
a(F45.42310639999999
F-75.68313289999999
Fnan
I2013
tp526
a(F22.3404614
F114.2607123
F3.0246666666666666
I2013
tp527
a(F39.2037144
F-76.86104619999999
Fnan
I2013
tp528
a(F40.91830059999999
F-73.1175003
Fnan
I2013
tp529
a(F42.3354612
F-71.1034568
F7.111833333333333
I2013
tp530
a(F42.360091
F-71.09416
F14.743000000000002
I2013
tp531
a(F41.8267718
F-71.4025482
F10.141833333333333
I2013
tp532
a(F39.3309608
F-76.6249799
Fnan
I2013
tp533
a(F35.9049122
F-79.0469134
F2.422
I2013
tp534
a(F42.9300197
F-78.84534239999999
F4.758
I2013
tp535
a(F35.7595731
F-79.01929969999999
Fnan
I2013
tp536
a(F35.1178139
F138.9384747
Fnan
I2013
tp537
a(F40.8444981
F-73.94321049999999
F27.7166
I2013
tp538
a(F37.7674283
F-122.3903494
F32.047
I2013
tp539
a(F40.742161
F-73.9741963
F14.9362
I2013
tp540
a(F48.5294782
F9.043773999999999
F4.0969999999999995
I2013
tp541
a(F38.984652
F-77.0947092
F4.758
I2013
tp542
a(F39.2903848
F-76.6121893
Fnan
I2013
tp543
a(F40.7649368
F-111.8421021
F37.12075
I2013
tp544
a(F32.8800604
F-117.2340135
Fnan
I2013
tp545
a(F55.9444904
F-3.1882958
Fnan
I2013
tp546
a(F32.8328112
F-117.2712717
Fnan
I2013
tp547
a(F42.36475590000001
F-71.1032591
Fnan
I2013
tp548
a(F33.4812198
F-112.0795041
F2.0909999999999997
I2013
tp549
a(F42.3956405
F-71.1776114
F14.9362
I2013
tp550
a(F40.7400068
F-74.18977629999999
F5.4012
I2013
tp551
a(F38.0340003
F-78.5102996
F7.111833333333333
I2013
tp552
a(F40.72951339999999
F-73.9964609
Fnan
I2013
tp553
a(F40.789057
F-73.9530983
F14.743000000000002
I2013
tp554
a(F37.8751926
F-122.2493051
F14.9362
I2013
tp555
a(F35.912234
F-79.053484
F14.9362
I2013
tp556
a(F59.34814839999999
F18.0236578
F14.9362
I2013
tp557
a(F38.9869183
F-76.9425543
F14.9362
I2013
tp558
a(F51.52455920000001
F-0.1340401
F7.111833333333333
I2013
tp559
a(F37.7529597
F-122.3858885
F7.111833333333333
I2013
tp560
a(F48.8471036
F2.357499
F7.111833333333333
I2013
tp561
a(F44.8247667
F-0.6085863
F37.12075
I2013
tp562
a(F48.697161
F2.189617
F2.8958
I2013
tp563
a(F51.52455920000001
F-0.1340401
F14.743000000000002
I2013
tp564
a(F38.0335529
F-78.5079772
F3.585666666666667
I2013
tp565
a(F51.5273659
F-0.0911811
F7.111833333333333
I2013
tp566
a(F35.912234
F-79.053484
F7.111833333333333
I2013
tp567
a(F37.4274745
F-122.169719
F27.7166
I2013
tp568
a(F35.9052764
F-79.05091159999999
F14.743000000000002
I2013
tp569
a(F52.455996
F13.295689
Fnan
I2013
tp570
a(F46.5229505
F6.639244000000001
F13.266000000000002
I2013
tp571
a(F38.6351676
F-90.26268170000002
F7.3146
I2013
tp572
a(F48.856614
F2.3522219
F4.100750000000001
I2013
tp573
a(F53.5947669
F9.982104999999999
Fnan
I2013
tp574
a(F39.2894979
F-76.61544289999999
Fnan
I2013
tp575
a(F35.0183663
F135.7760481
F30.486500000000007
I2013
tp576
a(F37.86373760000001
F-122.2682245
F2.2836666666666665
I2013
tp577
a(F37.4317961
F-122.1758412
F14.743000000000002
I2013
tp578
a(F43.0095971
F-81.2737336
F2.0284999999999997
I2013
tp579
a(F51.54128040000001
F9.915803499999999
Fnan
I2013
tp580
a(F41.8964357
F-87.61969030000002
F3.317166666666667
I2013
tp581
a(F39.94886899999999
F-75.1940869
F2.9787999999999997
I2013
tp582
a(F48.8404097
F2.3106107
F14.9362
I2013
tp583
a(F37.590401
F127.035859
Fnan
I2013
tp584
a(F47.6914835
F-122.3043287
F37.12075
I2013
tp585
a(F1.345871
F103.7508974
F7.111833333333333
I2013
tp586
a(F37.4274745
F-122.169719
Fnan
I2013
tp587
a(F47.5675946
F7.603574500000001
Fnan
I2013
tp588
a(F42.37954089999999
F-71.0646337
Fnan
I2013
tp589
a(F40.8617084
F-73.4696137
F37.12075
I2013
tp590
a(F40.7392263
F-73.9755502
F14.743000000000002
I2013
tp591
a(F47.9935441
F7.845949599999999
F3.951
I2013
tp592
a(F37.8718992
F-122.2585399
F4.0969999999999995
I2013
tp593
a(F40.9123761
F-73.1233889
F5.346666666666667
I2013
tp594
a(F40.72951339999999
F-73.9964609
F7.111833333333333
I2013
tp595
a(F51.4498444
F5.4938496
Fnan
I2013
tp596
a(F51.488117
F-3.180317
Fnan
I2013
tp597
a(F45.50478469999999
F-73.5771511
F14.743000000000002
I2013
tp598
a(F39.0437567
F-77.4874416
F14.743000000000002
I2013
tp599
a(F37.8738988
F-122.2657875
F13.266000000000002
I2013
tp600
a(F40.8422653
F-73.9446171
F14.9362
I2013
tp601
a(F37.8738988
F-122.2657875
F7.111833333333333
I2013
tp602
a(F40.7649368
F-111.8421021
F7.111833333333333
I2013
tp603
a(F42.3600825
F-71.0588801
F3.449666666666667
I2013
tp604
a(F52.1571485
F4.485209
Fnan
I2013
tp605
a(F48.5734053
F7.752111299999999
Fnan
I2013
tp606
a(F37.4274745
F-122.169719
F3.2729999999999997
I2013
tp607
a(F34.5913718
F135.5045925
Fnan
I2013
tp608
a(F29.6436325
F-82.3549302
Fnan
I2013
tp609
a(F40.0117828
F-105.2530678
Fnan
I2013
tp610
a(F52.52000659999999
F13.404954
F8.519
I2013
tp611
a(F40.76994699999999
F-111.833761
F8.519
I2013
tp612
a(F35.6628347
F139.6773974
Fnan
I2013
tp613
a(F34.070264
F-118.4440562
F7.111833333333333
I2013
tp614
a(F36.0038131
F-78.9387241
F7.111833333333333
I2013
tp615
a(F51.5240671
F-0.0403745
F4.032333333333333
I2013
tp616
a(F32.8328112
F-117.2712717
F14.743000000000002
I2013
tp617
a(F37.4274745
F-122.169719
F4.0969999999999995
I2013
tp618
a(F39.9583587
F-75.1953934
F7.111833333333333
I2013
tp619
a(F42.292322
F-83.71327199999999
F3.2729999999999997
I2013
tp620
a(F39.3544761
F-76.6629303
F9.384333333333334
I2013
tp621
a(F39.0437567
F-77.4874416
F4.0969999999999995
I2013
tp622
a(F47.5656032
F7.611773100000001
F14.9362
I2013
tp623
a(F52.3702157
F4.895167900000001
Fnan
I2013
tp624
a(F44.4056499
F8.946256
Fnan
I2013
tp625
a(F49.26060520000001
F-123.2459939
Fnan
I2013
tp626
a(F48.1089197
F11.451958
F7.111833333333333
I2013
tp627
a(F44.0448302
F-123.0726055
F7.111833333333333
I2013
tp628
a(F32.787049
F-79.950825
F7.111833333333333
I2013
tp629
a(F35.7012897
F139.764451
F4.0969999999999995
I2013
tp630
a(F40.00758099999999
F-105.2659417
F3.3397999999999994
I2013
tp631
a(F34.0223519
F-118.285117
F14.743000000000002
I2013
tp632
a(F34.0223519
F-118.285117
F14.743000000000002
I2013
tp633
a(F32.8800604
F-117.2340135
F14.743000000000002
I2013
tp634
a(F42.2887346
F-83.71373500000001
Fnan
I2013
tp635
a(F41.30323
F-72.93386989999999
F32.047
I2013
tp636
a(F51.49879970000001
F-0.1748772
F3.981666666666667
I2013
tp637
a(F44.837789
F-0.57918
Fnan
I2013
tp638
a(F40.4424402
F-79.95319479999999
Fnan
I2013
tp639
a(F32.7780372
F35.0270314
F3.2729999999999997
I2013
tp640
a(F42.3654347
F-71.258595
F8.519
I2013
tp641
a(F32.88435520000001
F-117.2338066
F14.9362
I2013
tp642
a(F37.8751926
F-122.2493051
F14.9362
I2013
tp643
a(F42.360091
F-71.09416
F30.486500000000007
I2013
tp644
a(F42.3709104
F-72.5170028
Fnan
I2013
tp645
a(F51.5408116
F9.9374004
Fnan
I2013
tp646
a(F42.3635847
F-71.08246129999999
F37.12075
I2013
tp647
a(F44.837789
F-0.57918
F3.3397999999999994
I2013
tp648
a(F41.8267718
F-71.4025482
Fnan
I2013
tp649
a(F35.7126775
F139.761989
Fnan
I2013
tp650
a(F41.3032184
F-72.9340036
F14.9362
I2013
tp651
a(F44.4746531
F8.9067366
F14.9362
I2013
tp652
a(F33.6450351
F-117.8525163
F7.3146
I2013
tp653
a(F34.820231
F135.5240193
Fnan
I2013
tp654
a(F29.7050857
F-95.40180869999999
Fnan
I2013
tp655
a(F42.3788363
F-71.1134613
Fnan
I2013
tp656
a(F52.52000659999999
F13.404954
F4.010800000000001
I2013
tp657
a(F32.8800604
F-117.2340135
F14.743000000000002
I2013
tp658
a(F37.7845383
F-122.4064648
F14.743000000000002
I2013
tp659
a(F43.078263
F-87.8819686
F7.111833333333333
I2013
tp660
a(F37.8718992
F-122.2585399
F14.743000000000002
I2013
tp661
a(F51.52455920000001
F-0.1340401
F14.743000000000002
I2013
tp662
a(F42.3525345
F-83.0558977
F4.0969999999999995
I2013
tp663
a(F59.3463703
F18.0237773
Fnan
I2013
tp664
a(F50.9224226
F6.3639119
F2.8958
I2013
tp665
a(F45.50478469999999
F-73.5771511
F4.0969999999999995
I2013
tp666
a(F34.068921
F-118.4451811
F13.2484
I2013
tp667
a(F32.8873915
F-117.2453427
F3.317166666666667
I2013
tp668
a(F40.4443533
F-79.960835
F6.901166666666666
I2013
tp669
a(F37.7748363
F-122.3872576
F5.248666666666667
I2013
tp670
a(F36.0033173
F-78.90575079999999
F4.0969999999999995
I2013
tp671
a(F37.5400537
F-77.431384
F4.286
I2013
tp672
a(F37.4274745
F-122.169719
Fnan
I2013
tp673
a(F50.9224226
F6.3639119
Fnan
I2013
tp674
a(F39.2887707
F-76.62606319999999
Fnan
I2013
tp675
a(F42.360091
F-71.09416
F30.486500000000007
I2013
tp676
a(F40.8411971
F-73.9412725
F30.486500000000007
I2013
tp677
a(F42.3948506
F-71.1943962
F30.486500000000007
I2013
tp678
a(F51.44566589999999
F7.261609300000001
Fnan
I2013
tp679
a(F41.87194
F12.56738
Fnan
I2013
tp680
a(F47.65533509999999
F-122.3035199
F4.758
I2013
tp681
a(F39.0437567
F-77.4874416
F14.743000000000002
I2013
tp682
a(F26.9342246
F-80.0942087
F7.291333333333334
I2013
tp683
a(F42.2780436
F-83.7382241
F2.45925
I2013
tp684
a(F51.07644
F-114.128284
F4.0969999999999995
I2013
tp685
a(F32.7304682
F-97.11477389999999
F3.3516666666666666
I2013
tp686
a(F50.9373806
F-1.3977725
F4.0969999999999995
I2013
tp687
a(F42.360091
F-71.09416
Fnan
I2013
tp688
a(F41.7324663
F-72.8072342
F9.384333333333334
I2013
tp689
a(F40.8617084
F-73.4696137
F37.12075
I2013
tp690
a(F37.7716141
F-122.4258437
F14.743000000000002
I2013
tp691
a(F34.94418510000001
F137.1743296
F3.3397999999999994
I2013
tp692
a(F51.52455920000001
F-0.1340401
F7.291333333333334
I2013
tp693
a(F42.0564594
F-87.67526699999999
F10.141833333333333
I2013
tp694
a(F42.360091
F-71.09416
F3.0471999999999997
I2013
tp695
a(F48.523927
F9.0534833
Fnan
I2013
tp696
a(F38.9994906
F-77.1065988
F4.286
I2013
tp697
a(F42.3770029
F-71.11666009999999
F14.743000000000002
I2013
tp698
a(F35.912234
F-79.053484
F3.3397999999999994
I2013
tp699
a(F37.4317961
F-122.1758412
F3.6867999999999994
I2013
tp700
a(F35.7088306
F139.7600967
F7.111833333333333
I2013
tp701
a(F1.2966426
F103.7763939
Fnan
I2013
tp702
a(F37.8738988
F-122.2657875
Fnan
I2013
tp703
a(F41.89483269999999
F-87.6198915
F14.743000000000002
I2013
tp704
a(F51.52455920000001
F-0.1340401
Fnan
I2013
tp705
a(F49.3987524
F8.6724335
Fnan
I2013
tp706
a(F39.7450558
F-104.8376538
F3.3397999999999994
I2013
tp707
a(F37.4317961
F-122.1758412
F7.291333333333334
I2013
tp708
a(F42.3600825
F-71.0588801
F4.0969999999999995
I2013
tp709
a(F40.8617084
F-73.4696137
F37.12075
I2013
tp710
a(F47.9935441
F7.845949599999999
Fnan
I2013
tp711
a(F37.4274745
F-122.169719
F2.3625
I2012
tp712
a(F39.2887707
F-76.62606319999999
F3.3397999999999994
I2013
tp713
a(F35.7120564
F139.7627745
F3.3397999999999994
I2013
tp714
a(F50.88151970000001
F4.696757799999999
F10.024166666666666
I2013
tp715
a(F51.56081700000001
F9.967507
Fnan
I2013
tp716
a(F55.790447
F49.1214348
Fnan
I2013
tp717
a(F35.1555774
F-90.045435
F7.111833333333333
I2013
tp718
a(F38.031942
F-78.49858499999999
Fnan
I2013
tp719
a(F-27.4954306
F153.0120301
F7.111833333333333
I2013
tp720
a(F40.4443533
F-79.960835
F7.111833333333333
I2013
tp721
a(F45.5056156
F-73.61375919999999
F10.456
I2013
tp722
a(F38.268215
F140.8693558
F4.0969999999999995
I2013
tp723
a(F39.9522188
F-75.1932137
F3.3626666666666662
I2013
tp724
a(F56.1698935
F10.198309
F3.8721666666666668
I2013
tp725
a(F50.1247013
F8.6677742
F13.266000000000002
I2013
tp726
a(F40.1019523
F-88.2271615
F30.486500000000007
I2013
tp727
a(F30.5277687
F-96.2115263
F4.0969999999999995
I2013
tp728
a(F40.1734502
F-80.24350129999999
Fnan
I2013
tp729
a(F37.837959
F-122.2824021
F7.111833333333333
I2013
tp730
a(F39.0631505
F-77.1138514
F7.111833333333333
I2013
tp731
a(F38.268215
F140.8693558
F4.0969999999999995
I2013
tp732
a(F35.7126775
F139.761989
Fnan
I2013
tp733
a(F39.2713976
F-76.5603828
F37.12075
I2013
tp734
a(F38.2543055
F140.8745808
F2.2939999999999996
I2013
tp735
a(F40.4425829
F-79.9616851
F6.901166666666666
I2013
tp736
a(F36.0033173
F-78.90575079999999
F4.0969999999999995
I2013
tp737
a(F51.536454
F-0.1335335
Fnan
I2013
tp738
a(F49.0068901
F8.4036527
F4.0969999999999995
I2013
tp739
a(F41.89483269999999
F-87.6198915
F7.111833333333333
I2013
tp740
a(F41.3029812
F-72.9315172
Fnan
I2013
tp741
a(F52.5304776
F13.3779359
F5.02
I2013
tp742
a(F42.3770029
F-71.11666009999999
F2.669166666666667
I2013
tp743
a(F48.1643169
F11.5923762
F14.9362
I2013
tp744
a(F41.297445
F2.0832941
Fnan
I2013
tp745
a(F42.4293456
F-71.1084766
Fnan
I2012
tp746
a(F48.8471036
F2.357499
Fnan
I2013
tp747
a(F37.4274745
F-122.169719
F37.12075
I2013
tp748
a(F35.912234
F-79.053484
F37.12075
I2013
tp749
a(F43.076592
F-89.4124875
F9.121500000000001
I2013
tp750
a(F39.9522188
F-75.1932137
F9.121500000000001
I2013
tp751
a(F52.4525264
F13.2896787
Fnan
I2013
tp752
a(F35.1814464
F136.906398
Fnan
I2013
tp753
a(F55.8610414
F-4.242564199999999
F3.3516666666666666
I2013
tp754
a(F34.057586
F-118.443493
F7.200166666666667
I2012
tp755
a(F41.3029812
F-72.9315172
F14.9362
I2013
tp756
a(F47.797297
F-122.204024
Fnan
I2013
tp757
a(F29.7604267
F-95.3698028
Fnan
I2013
tp758
a(F39.0437567
F-77.4874416
Fnan
I2013
tp759
a(F50.88151970000001
F4.696757799999999
F3.9339999999999997
I2013
tp760
a(F40.9123761
F-73.1233889
Fnan
I2013
tp761
a(F29.6358933
F-82.3726796
F2.650166666666667
I2013
tp762
a(F53.5287361
F-113.5227065
F3.7735000000000003
I2013
tp763
a(F40.9092169
F-73.1151977
F7.111833333333333
I2013
tp764
a(F32.7780372
F35.0270314
F9.384333333333334
I2013
tp765
a(F38.031942
F-78.49858499999999
F6.933666666666667
I2013
tp766
a(F32.7849051
F-79.9464216
F2.669166666666667
I2013
tp767
a(F34.0223519
F-118.285117
F3.7735000000000003
I2013
tp768
a(F41.730201
F-72.8397317
Fnan
I2013
tp769
a(F48.0098937
F7.8574669
F3.7586
I2013
tp770
a(F40.019561
F-75.180195
F7.111833333333333
I2013
tp771
a(F43.1305531
F-77.6260033
F3.317166666666667
I2013
tp772
a(F34.066463
F-118.443069
F5.2755
I2013
tp773
a(F41.6626963
F-91.5548998
Fnan
I2013
tp774
a(F42.3782065
F-71.0602131
F14.5286
I2013
tp775
a(F35.7803721
F139.6119316
Fnan
I2013
tp776
a(F42.9300197
F-78.84534239999999
Fnan
I2013
tp777
a(F37.8718992
F-122.2585399
Fnan
I2013
tp778
a(F49.0110316
F8.3950786
F3.981666666666667
I2013
tp779
a(F39.2713976
F-76.5603828
F7.291333333333334
I2013
tp780
a(F31.907867
F34.811363
Fnan
I2013
tp781
a(F34.7321923
F135.7322775
Fnan
I2013
tp782
a(F37.4274745
F-122.169719
Fnan
I2013
tp783
a(F39.2992708
F-76.5933967
F3.4518333333333335
I2012
tp784
a(F31.9685988
F-99.9018131
Fnan
I2012
tp785
a(F59.3463703
F18.0237773
F7.111833333333333
I2013
tp786
a(F34.0223519
F-118.285117
F3.317166666666667
I2013
tp787
a(F33.6404952
F-117.8442962
F9.384333333333334
I2012
tp788
a(F52.52000659999999
F13.404954
F8.801499999999999
I2013
tp789
a(F32.7849051
F-79.9464216
F2.669166666666667
I2013
tp790
a(F35.9131996
F-79.0558445
F20.3836
I2013
tp791
a(F42.360091
F-71.09416
F2.669166666666667
I2013
tp792
a(F47.9935441
F7.845949599999999
F6.06625
I2013
tp793
a(F32.8031004
F130.7078911
F4.0969999999999995
I2012
tp794
a(F39.2713976
F-76.5603828
F7.111833333333333
I2013
tp795
a(F42.3359248
F-71.1066945
Fnan
I2013
tp796
a(F42.3629523
F-71.0686975
F26.79716666666667
I2013
tp797
a(F42.339904
F-71.0898892
Fnan
I2013
tp798
a(F35.7809165
F139.6124427
Fnan
I2012
tp799
a(F51.56655319999999
F9.963474999999999
Fnan
I2012
tp800
a(F52.4541999
F13.297325
F5.9408
I2012
tp801
a(F42.338445
F-71.103142
F2.669166666666667
I2012
tp802
a(F1.281185
F103.834145
F2.2124
I2012
tp803
a(F42.3770029
F-71.11666009999999
F7.291333333333334
I2012
tp804
a(F40.7900326
F-73.95392609999999
F37.12075
I2012
tp805
a(F42.360091
F-71.09416
F37.12075
I2012
tp806
a(F33.7925195
F-84.32399889999999
F4.0969999999999995
I2012
tp807
a(F31.1622136
F121.4068209
F4.0969999999999995
I2012
tp808
a(F41.8267718
F-71.4025482
F7.111833333333333
I2012
tp809
a(F39.0437567
F-77.4874416
F14.743000000000002
I2012
tp810
a(F39.0289845
F-77.1331857
F14.9362
I2012
tp811
a(F50.73743
F7.0982068
F2.59
I2012
tp812
a(F37.4317961
F-122.1758412
F2.59
I2012
tp813
a(F42.360091
F-71.09416
F3.3516666666666666
I2012
tp814
a(F52.3758916
F9.732010400000002
F4.010800000000001
I2012
tp815
a(F34.94418510000001
F137.1743296
Fnan
I2012
tp816
a(F41.6626963
F-91.5548998
Fnan
I2012
tp817
a(F51.49879970000001
F-0.1748772
F2.2836666666666665
I2012
tp818
a(F46.2000323
F6.1638785
F37.12075
I2012
tp819
a(F37.7678064
F-122.3943254
F2.669166666666667
I2012
tp820
a(F39.2713976
F-76.5603828
F14.9362
I2012
tp821
a(F42.3770029
F-71.11666009999999
F14.9362
I2012
tp822
a(F37.4274745
F-122.169719
F20.005999999999997
I2012
tp823
a(F30.5277687
F-96.2115263
F8.889333333333333
I2012
tp824
a(F37.4274745
F-122.169719
F37.12075
I2012
tp825
a(F39.743807
F-104.836049
F3.9339999999999997
I2012
tp826
a(F38.27166709999999
F140.8590038
F2.2124
I2012
tp827
a(F43.6047275
F3.9011747
F2.669166666666667
I2012
tp828
a(F51.5222509
F-0.1222845
F9.121500000000001
I2012
tp829
a(F37.4317961
F-122.1758412
F14.743000000000002
I2012
tp830
a(F40.8075355
F-73.9625727
F20.005999999999997
I2012
tp831
a(F42.360091
F-71.09416
F2.669166666666667
I2012
tp832
a(F40.7400774
F-74.1896708
F6.1883333333333335
I2012
tp833
a(F37.4274745
F-122.169719
F30.486500000000007
I2012
tp834
a(F39.2992708
F-76.5933967
Fnan
I2012
tp835
a(F32.9009597
F-117.2415995
F7.111833333333333
I2012
tp836
a(F51.52455920000001
F-0.1340401
F5.940666666666666
I2012
tp837
a(F53.5287361
F-113.5227065
F3.9339999999999997
I2012
tp838
a(F42.360091
F-71.09416
Fnan
I2012
tp839
a(F-37.7963689
F144.9611738
Fnan
I2012
tp840
a(F38.0320192
F-78.50052199999999
F2.669166666666667
I2012
tp841
a(F42.3549309
F-83.05458879999999
F2.669166666666667
I2012
tp842
a(F47.6825678
F-122.2629989
F2.669166666666667
I2012
tp843
a(F51.8236175
F5.8598336
F5.053333333333334
I2012
tp844
a(F35.9087754
F-79.0297294
F2.669166666666667
I2012
tp845
a(F43.078263
F-87.8819686
Fnan
I2012
tp846
a(F50.1784926
F8.633809
F7.111833333333333
I2012
tp847
a(F38.268215
F140.8693558
F2.2124
I2012
tp848
a(F35.1542164
F136.9675489
F2.2124
I2012
tp849
a(F29.3111074
F-94.7760247
F4.2735
I2012
tp850
a(F35.9102721
F-79.0557896
Fnan
I2012
tp851
a(F39.2903848
F-76.6121893
Fnan
I2012
tp852
a(F37.837959
F-122.2824021
F2.669166666666667
I2012
tp853
a(F37.5407246
F-77.4360481
F4.0969999999999995
I2012
tp854
a(F40.8101861
F-73.9603805
Fnan
I2012
tp855
a(F52.2924365
F4.9552403
F10.141833333333333
I2012
tp856
a(F49.26019549999999
F-123.2426367
F7.111833333333333
I2012
tp857
a(F28.171329
F112.925875
F1.0446666666666669
I2012
tp858
a(F42.3770029
F-71.11666009999999
F37.12075
I2012
tp859
a(F29.63923
F-82.34331
Fnan
I2012
tp860
a(F43.07731889999999
F-89.4301347
F3.317166666666667
I2012
tp861
a(F35.9940329
F-78.898619
F14.743000000000002
I2012
tp862
a(F34.9543786
F137.1743293
F2.2124
I2012
tp863
a(F35.9005807
F139.9346779
F2.2124
I2012
tp864
a(F42.3625405
F-71.0645672
F3.2601666666666667
I2012
tp865
a(F42.360091
F-71.09416
F6.06625
I2012
tp866
a(F40.72951339999999
F-73.9964609
F7.111833333333333
I2012
tp867
a(F32.7304682
F-97.11477389999999
Fnan
I2012
tp868
a(F50.883333
F4.7
F6.3172
I2012
tp869
a(F29.5603522
F106.4697864
Fnan
I2012
tp870
a(F42.3504997
F-71.1053991
F3.7735000000000003
I2012
tp871
a(F51.5222509
F-0.1222845
Fnan
I2012
tp872
a(F44.8350088
F-0.5872689999999999
Fnan
I2012
tp873
a(F38.900701
F-77.055784
Fnan
I2012
tp874
a(F40.8075355
F-73.9625727
Fnan
I2012
tp875
a(F34.9543786
F137.1743293
F2.2124
I2012
tp876
a(F42.3600825
F-71.0588801
Fnan
I2012
tp877
a(F34.9543786
F137.1743293
F7.207
I2012
tp878
a(F52.532614
F13.3777035
F5.02
I2012
tp879
a(F41.9027835
F12.4963655
F2.2551666666666668
I2012
tp880
a(F42.3844144
F-71.0718155
F10.141833333333333
I2012
tp881
a(F37.4274745
F-122.169719
F14.743000000000002
I2012
tp882
a(F49.7830083
F9.9708462
F1.411
I2012
tp883
a(F29.5428749
F106.4471099
F1.5026666666666666
I2012
tp884
a(F50.1717045
F8.6313626
Fnan
I2012
tp885
a(F32.7843391
F-79.94684989999999
F5.084833333333334
I2012
tp886
a(F50.1247013
F8.6677742
F4.0969999999999995
I2012
tp887
a(F35.7812079
F139.6057934
F3.317166666666667
I2012
tp888
a(F51.8237812
F5.869837599999999
F3.585666666666667
I2012
tp889
a(F35.9940329
F-78.898619
F7.3146
I2012
tp890
a(F42.3354612
F-71.1034568
Fnan
I2012
tp891
a(F34.8137193
F135.5098745
F3.585666666666667
I2012
tp892
a(F37.4274745
F-122.169719
F3.497833333333334
I2012
tp893
a(F18.5204303
F73.8567437
Fnan
I2012
tp894
a(F51.52455920000001
F-0.1340401
F5.934200000000001
I2012
tp895
a(F48.856614
F2.3522219
Fnan
I2012
tp896
a(F55.7046601
F13.1910073
F4.286
I2012
tp897
a(F34.8032044
F135.4533378
F2.2124
I2012
tp898
a(F47.5656032
F7.611773100000001
F7.111833333333333
I2012
tp899
a(F59.348024
F18.02239
F2.669166666666667
I2012
tp900
a(F29.71306599999999
F-95.397055
Fnan
I2012
tp901
a(F49.26060520000001
F-123.2459939
F5.956333333333333
I2012
tp902
a(F-33.7776076
F151.1182287
Fnan
I2012
tp903
a(F50.57085
F8.674629000000001
Fnan
I2012
tp904
a(F35.9997283
F-78.9333685
F3.317166666666667
I2012
tp905
a(F35.7120564
F139.7627745
F2.2939999999999996
I2012
tp906
a(F37.4274745
F-122.169719
Fnan
I2011
tp907
a(F40.7390264
F-74.1687396
F3.317166666666667
I2012
tp908
a(F50.1736418
F8.6293536
F10.141833333333333
I2012
tp909
a(F41.7911243
F-87.60249739999999
F6.128833333333334
I2012
tp910
a(F42.360091
F-71.09416
Fnan
I2012
tp911
a(F41.8077414
F-72.2539805
F4.0969999999999995
I2012
tp912
a(F38.2543055
F140.8745808
F2.2124
I2012
tp913
a(F51.4584172
F-2.6029792
F3.3069999999999995
I2012
tp914
a(F41.5030149
F-81.6084542
F3.317166666666667
I2012
tp915
a(F35.7054793
F139.7595639
F3.3024
I2012
tp916
a(F49.26060520000001
F-123.2459939
Fnan
I2012
tp917
a(F32.8800604
F-117.2340135
Fnan
I2012
tp918
a(F55.87212109999999
F-4.288200499999999
F5.0714
I2012
tp919
a(F34.4139629
F-119.848947
F2.061
I2012
tp920
a(F30.5282346
F114.4276539
F1.5683333333333334
I2012
tp921
a(F37.431113
F-122.178451
F10.456
I2012
tp922
a(F51.7566341
F-1.2547037
F0.7804
I2012
tp923
a(F31.907867
F34.811363
Fnan
I2011
tp924
a(F42.3504997
F-71.1053991
F3.9202500000000002
I2012
tp925
a(F47.6062095
F-122.3320708
F3.9202500000000002
I2012
tp926
a(F31.907867
F34.811363
F3.9202500000000002
I2012
tp927
a(F38.69686069999999
F-9.314601399999999
F3.9202500000000002
I2012
tp928
a(F34.068921
F-118.4451811
F5.940666666666666
I2012
tp929
a(F39.2887707
F-76.62606319999999
Fnan
I2011
tp930
a(F53.4668498
F-2.2338837
F4.0969999999999995
I2011
tp931
a(F35.5174913
F-86.5804473
Fnan
I2011
tp932
a(F35.7157922
F139.7643271
F37.12075
I2012
tp933
a(F42.4061205
F-71.1167742
Fnan
I2012
tp934
a(F47.9935441
F7.845949599999999
Fnan
I2012
tp935
a(F49.0116951
F8.4303821
F5.02
I2012
tp936
a(F33.7756178
F-84.39628499999999
F7.3146
I2012
tp937
a(F51.4471272
F7.265039700000001
F5.02
I2012
tp938
a(F34.1376576
F-118.125269
Fnan
I2011
tp939
a(F34.068921
F-118.4451811
Fnan
I2012
tp940
a(F40.0005378
F-105.2077798
Fnan
I2012
tp941
a(F41.5043413
F-81.6083838
Fnan
I2012
tp942
a(F47.566553
F7.602361999999999
Fnan
I2011
tp943
a(F42.3635847
F-71.08246129999999
F32.047
I2011
tp944
a(F40.72951339999999
F-73.9964609
Fnan
I2011
tp945
a(F41.8267718
F-71.4025482
F3.2729999999999997
I2011
tp946
a(F37.4274745
F-122.169719
F14.9362
I2011
tp947
a(F42.3632157
F-71.08682519999999
F10.141833333333333
I2011
tp948
a(F51.7520209
F-1.2577263
F10.141833333333333
I2011
tp949
a(F37.4274745
F-122.169719
F14.743000000000002
I2011
tp950
a(F44.8010832
F10.3256893
F26.010333333333335
I2011
tp951
a(F29.8513537
F31.3430837
Fnan
I2011
tp952
a(F41.3163244
F-72.92234309999999
Fnan
I2011
tp953
a(F38.9994906
F-77.1065988
F7.291333333333334
I2011
tp954
a(F42.3607011
F-71.0877227
F7.291333333333334
I2011
tp955
a(F57.15526089999999
F-2.1274341
F7.291333333333334
I2011
tp956
a(F48.1059924
F11.4864487
Fnan
I2011
tp957
a(F49.4874592
F8.466039499999999
F5.940666666666666
I2011
tp958
a(F38.031942
F-78.49858499999999
F7.111833333333333
I2011
tp959
a(F50.1109221
F8.6821267
F20.005999999999997
I2011
tp960
a(F42.360091
F-71.09416
Fnan
I2011
tp961
a(F34.068921
F-118.4451811
Fnan
I2011
tp962
a(F29.9262443
F-95.59698739999999
F2.4338333333333337
I2011
tp963
a(F22.5818083
F113.965655
F7.5355
I2011
tp964
a(F42.3770029
F-71.11666009999999
F7.111833333333333
I2011
tp965
a(F50.1748224
F8.6322786
F3.981666666666667
I2011
tp966
a(F39.0437567
F-77.4874416
F37.12075
I2011
tp967
a(F55.7119483
F13.203493
F4.032333333333333
I2011
tp968
a(F37.4317961
F-122.1758412
F33.94733333333333
I2011
tp969
a(F41.3065186
F-72.9310714
F1.7276
I2011
tp970
a(F40.7900326
F-73.95392609999999
F4.286
I2011
tp971
a(F52.2042666
F0.1149085
F5.084833333333334
I2011
tp972
a(F37.7145806
F-89.2230446
F3.317166666666667
I2011
tp973
a(F37.5400537
F-77.431384
F4.286
I2011
tp974
a(F42.35925390000001
F-71.09313420000001
Fnan
I2011
tp975
a(F35.7080677
F139.752167
F4.0969999999999995
I2011
tp976
a(F40.9123761
F-73.1233889
Fnan
I2011
tp977
a(F42.360091
F-71.09416
Fnan
I2011
tp978
a(F48.341662
F14.2844513
F6.089333333333333
I2011
tp979
a(F37.4274745
F-122.169719
F2.9843333333333337
I2011
tp980
a(F37.4274745
F-122.169719
Fnan
I2011
tp981
a(F42.3629523
F-71.0686975
F14.743000000000002
I2011
tp982
a(F35.7359653
F139.4754864
F3.3024
I2011
tp983
a(F37.4274745
F-122.169719
F14.9362
I2011
tp984
a(F39.9522188
F-75.1932137
F6.616166666666667
I2011
tp985
a(F40.7900326
F-73.95392609999999
F4.278333333333333
I2011
tp986
a(F42.35925390000001
F-71.09313420000001
F3.2729999999999997
I2011
tp987
a(F37.4274745
F-122.169719
F24.8668
I2011
tp988
a(F51.44566589999999
F7.261609300000001
Fnan
I2011
tp989
a(F48.856614
F2.3522219
Fnan
I2011
tp990
a(F34.1376576
F-118.125269
Fnan
I2011
tp991
a(F48.856614
F2.3522219
F3.3471666666666664
I2011
tp992
a(F29.7104988
F-95.3961809
Fnan
I2011
tp993
a(F32.7767783
F35.0231271
F1.2808
I2011
tp994
a(F-37.7963689
F144.9611738
F3.071
I2011
tp995
a(F37.7749295
F-122.4194155
F7.291333333333334
I2011
tp996
a(F55.7046601
F13.1910073
F4.0969999999999995
I2011
tp997
a(F37.4274745
F-122.169719
F37.12075
I2011
tp998
a(F52.2042666
F0.1149085
F1.4013333333333333
I2011
tp999
a(F55.7046601
F13.1910073
Fnan
I2011
tp1000
a(F43.887929
F125.333922
F1.07975
I2011
tp1001
a(F38.031942
F-78.49858499999999
F7.111833333333333
I2011
tp1002
a(F37.4274745
F-122.169719
F14.743000000000002
I2010
tp1003
a(F41.6626963
F-91.5548998
F4.67225
I2010
tp1004
a(F33.7756178
F-84.39628499999999
F20.005999999999997
I2010
tp1005
a(F39.0437567
F-77.4874416
F20.005999999999997
I2010
tp1006
a(F37.4274745
F-122.169719
F20.005999999999997
I2010
tp1007
a(F38.031942
F-78.49858499999999
Fnan
I2010
tp1008
a(F42.35925390000001
F-71.09313420000001
F3.3516666666666666
I2010
tp1009
a(F37.4274745
F-122.169719
F30.486500000000007
I2010
tp1010
a(F48.8404097
F2.3106107
F7.111833333333333
I2010
tp1011
a(F42.3770029
F-71.11666009999999
F14.9362
I2010
tp1012
a(F48.5369071
F9.0591175
F37.12075
I2010
tp1013
a(F41.8267718
F-71.4025482
Fnan
I2010
tp1014
a(F35.7809165
F139.6124427
F7.111833333333333
I2010
tp1015
a(F51.4575767
F-2.5999862
F3.1457499999999996
I2010
tp1016
a(F36.1421733
F-86.8025488
F20.005999999999997
I2010
tp1017
a(F52.5304776
F13.3779359
F5.02
I2010
tp1018
a(F32.7441638
F-117.1842886
F20.005999999999997
I2010
tp1019
a(F38.268215
F140.8693558
F4.0969999999999995
I2010
tp1020
a(F51.7566341
F-1.2547037
Fnan
I2010
tp1021
a(F35.7809165
F139.6124427
F3.1457499999999996
I2010
tp1022
a(F41.7886079
F-87.5987133
Fnan
I2010
tp1023
a(F42.3354612
F-71.1034568
F14.743000000000002
I2010
tp1024
a(F51.44566589999999
F7.261609300000001
F4.758
I2010
tp1025
a(F33.7788726
F-84.39601189999999
Fnan
I2010
tp1026
a(F36.0899096
F-80.2695779
F4.1228
I2010
tp1027
a(F42.360091
F-71.09416
F32.047
I2010
tp1028
a(F37.4274745
F-122.169719
F32.047
I2010
tp1029
a(F37.4274745
F-122.169719
F7.3146
I2010
tp1030
a(F37.7716141
F-122.4258437
Fnan
I2009
tp1031
a(F37.8738988
F-122.2657875
Fnan
I2009
tp1032
a(F41.5049169
F-81.60410259999999
Fnan
I2009
tp1033
a(F37.8738988
F-122.2657875
F37.12075
I2009
tp1034
a(F42.36085610000001
F-71.0877253
Fnan
I2009
tp1035
a(F25.7870967
F-80.2042436
F3.2729999999999997
I2009
tp1036
a(F52.0303012
F8.5079382
F9.8276
I2009
tp1037
a(F32.887047
F-117.244785
F14.9362
I2009
tp1038
a(F37.4274745
F-122.169719
F37.12075
I2009
tp1039
a(F37.4274745
F-122.169719
F30.486500000000007
I2009
tp1040
a(F52.5234862
F13.3778555
F5.02
I2007
tp1041
a.